target datalayout = "e-m:e-p270:32:32-p271:32:32-p272:64:64-i64:64-i128:128-f80:128-n8:16:32:64-S128"
target triple = "x86_64-pc-linux-gnu"

%struct.rb_vm_struct = type { i64, %struct.anon, ptr, i64, %struct.ccan_list_head, i32, i8, i64, ptr, [5 x i64], i64, i64, i64, i64, i64, i64, i64, i64, i64, ptr, ptr, ptr, %struct.anon.3, ptr, i32, %struct.ccan_list_head, %union.pthread_mutex_t, i64, i64, i64, i64, i32, %struct.anon.4, ptr, ptr, ptr, ptr, ptr, ptr, ptr, ptr, i64, [1023 x ptr], %struct.anon.5 }
%struct.anon = type { %struct.ccan_list_head, i32, i32, ptr, ptr, %struct.anon.0, %struct.anon.2 }
%struct.anon.0 = type { %union.pthread_mutex_t, ptr, i32, %union.pthread_cond_t, i8 }
%union.pthread_cond_t = type { %struct.__pthread_cond_s }
%struct.__pthread_cond_s = type { %union.__atomic_wide_counter, %union.__atomic_wide_counter, [2 x i32], [2 x i32], i32, i32, [2 x i32] }
%union.__atomic_wide_counter = type { i64 }
%struct.anon.2 = type { %union.pthread_mutex_t, ptr, i8, %union.pthread_cond_t, i32, i32, i32, i32, %struct.ccan_list_head, i32, %struct.ccan_list_head, %struct.ccan_list_head, %struct.ccan_list_head, i8, %union.pthread_cond_t, %union.pthread_cond_t, i8, i32, i32 }
%struct.anon.3 = type { [65 x i64] }
%struct.ccan_list_head = type { %struct.ccan_list_node }
%struct.ccan_list_node = type { ptr, ptr }
%union.pthread_mutex_t = type { %struct.__pthread_mutex_s }
%struct.__pthread_mutex_s = type { i32, i32, i32, i32, i32, i16, i16, %struct.__pthread_internal_list }
%struct.__pthread_internal_list = type { ptr, ptr }
%struct.anon.4 = type { ptr, ptr }
%struct.anon.5 = type { i64, i64, i64, i64 }

@ruby_initial_load_paths = external constant [0 x i8], align 1
@ruby_exec_prefix = external constant [0 x i8], align 1
@ruby_prefix_path = hidden global i64 0, align 8
@ruby_archlibdir_path = hidden global i64 0, align 8
@.str = private unnamed_addr constant [8 x i8] c"RUBYLIB\00", align 1
@.str.1 = private unnamed_addr constant [19 x i8] c"@gem_prelude_index\00", align 1
@rb_cObject = external global i64, align 8
@.str.2 = private unnamed_addr constant [16 x i8] c"TMP_RUBY_PREFIX\00", align 1
@.str.24 = private unnamed_addr constant [2 x i8] c":\00", align 1
@ruby_current_vm_ptr = external global ptr, align 8

; Function Attrs: inlinehint nounwind sspstrong uwtable
define internal ptr @rb_char_next(ptr noundef %0) #5 {
  %2 = alloca ptr, align 8
  %3 = alloca i32, align 4
  store ptr %0, ptr %2, align 8, !tbaa !7
  %4 = load ptr, ptr %2, align 8, !tbaa !7
  %5 = icmp ne ptr %4, null
  br i1 %5, label %6, label %19

6:                                                ; preds = %1
  call void @llvm.lifetime.start.p0(i64 4, ptr %3) #24
  %7 = load ptr, ptr %2, align 8, !tbaa !7
  %8 = call i32 @mblen(ptr noundef %7, i64 noundef 2147483647) #24
  store i32 %8, ptr %3, align 4, !tbaa !12
  %9 = load i32, ptr %3, align 4, !tbaa !12
  %10 = icmp sgt i32 %9, 0
  br i1 %10, label %11, label %13

11:                                               ; preds = %6
  %12 = load i32, ptr %3, align 4, !tbaa !12
  br label %14

13:                                               ; preds = %6
  br label %14

14:                                               ; preds = %13, %11
  %15 = phi i32 [ %12, %11 ], [ 1, %13 ]
  %16 = load ptr, ptr %2, align 8, !tbaa !7
  %17 = sext i32 %15 to i64
  %18 = getelementptr i8, ptr %16, i64 %17
  store ptr %18, ptr %2, align 8, !tbaa !7
  call void @llvm.lifetime.end.p0(i64 4, ptr %3) #24
  br label %19

19:                                               ; preds = %14, %1
  %20 = load ptr, ptr %2, align 8, !tbaa !7
  ret ptr %20
}

; Function Attrs: inlinehint nounwind sspstrong willreturn memory(read) uwtable
define internal i64 @rb_intern_const(ptr noundef nonnull %0) #7 {
  %2 = alloca ptr, align 8
  %3 = alloca i64, align 8
  store ptr %0, ptr %2, align 8, !tbaa !7
  call void @llvm.lifetime.start.p0(i64 8, ptr %3) #24
  %4 = load ptr, ptr %2, align 8, !tbaa !7
  %5 = call i64 @strlen(ptr noundef %4) #25
  store i64 %5, ptr %3, align 8, !tbaa !42
  %6 = load ptr, ptr %2, align 8, !tbaa !7
  %7 = load i64, ptr %3, align 8, !tbaa !42
  %8 = call i64 @rb_intern2(ptr noundef %6, i64 noundef %7)
  call void @llvm.lifetime.end.p0(i64 8, ptr %3) #24
  ret i64 %8
}

; Function Attrs: nounwind sspstrong uwtable
define internal void @ruby_push_include(ptr noundef %0, ptr noundef %1) #0 {
  %3 = alloca ptr, align 8
  %4 = alloca ptr, align 8
  %5 = alloca i8, align 1
  %6 = alloca ptr, align 8
  %7 = alloca ptr, align 8
  %8 = alloca i64, align 8
  %9 = alloca i32, align 4
  %10 = alloca i64, align 8
  store ptr %0, ptr %3, align 8, !tbaa !7
  store ptr %1, ptr %4, align 8, !tbaa !17
  call void @llvm.lifetime.start.p0(i64 1, ptr %5) #24
  %11 = load i8, ptr @.str.24, align 1, !tbaa !14
  store i8 %11, ptr %5, align 1, !tbaa !14
  call void @llvm.lifetime.start.p0(i64 8, ptr %6) #24
  call void @llvm.lifetime.start.p0(i64 8, ptr %7) #24
  call void @llvm.lifetime.start.p0(i64 8, ptr %8) #24
  %12 = call ptr @rb_current_vm()
  %13 = getelementptr inbounds nuw %struct.rb_vm_struct, ptr %12, i32 0, i32 11
  %14 = load i64, ptr %13, align 8, !tbaa !18
  store i64 %14, ptr %8, align 8, !tbaa !42
  %15 = load ptr, ptr %3, align 8, !tbaa !7
  %16 = icmp eq ptr %15, null
  br i1 %16, label %17, label %18

17:                                               ; preds = %2
  store i32 1, ptr %9, align 4
  br label %81

18:                                               ; preds = %2
  %19 = load ptr, ptr %3, align 8, !tbaa !7
  store ptr %19, ptr %6, align 8, !tbaa !7
  br label %20

20:                                               ; preds = %79, %18
  %21 = load ptr, ptr %6, align 8, !tbaa !7
  %22 = load i8, ptr %21, align 1, !tbaa !14
  %23 = icmp ne i8 %22, 0
  br i1 %23, label %24, label %80

24:                                               ; preds = %20
  call void @llvm.lifetime.start.p0(i64 8, ptr %10) #24
  br label %25

25:                                               ; preds = %30, %24
  %26 = load ptr, ptr %6, align 8, !tbaa !7
  %27 = load i8, ptr %26, align 1, !tbaa !14
  %28 = sext i8 %27 to i32
  %29 = icmp eq i32 %28, 58
  br i1 %29, label %30, label %33

30:                                               ; preds = %25
  %31 = load ptr, ptr %6, align 8, !tbaa !7
  %32 = getelementptr i8, ptr %31, i32 1
  store ptr %32, ptr %6, align 8, !tbaa !7
  br label %25, !llvm.loop !43

33:                                               ; preds = %25
  %34 = load ptr, ptr %6, align 8, !tbaa !7
  %35 = load i8, ptr %34, align 1, !tbaa !14
  %36 = icmp ne i8 %35, 0
  br i1 %36, label %38, label %37

37:                                               ; preds = %33
  store i32 3, ptr %9, align 4
  br label %77

38:                                               ; preds = %33
  %39 = load ptr, ptr %6, align 8, !tbaa !7
  store ptr %39, ptr %7, align 8, !tbaa !7
  br label %40

40:                                               ; preds = %54, %38
  %41 = load ptr, ptr %7, align 8, !tbaa !7
  %42 = load i8, ptr %41, align 1, !tbaa !14
  %43 = sext i8 %42 to i32
  %44 = icmp ne i32 %43, 0
  br i1 %44, label %45, label %51

45:                                               ; preds = %40
  %46 = load ptr, ptr %7, align 8, !tbaa !7
  %47 = load i8, ptr %46, align 1, !tbaa !14
  %48 = sext i8 %47 to i32
  %49 = icmp eq i32 %48, 58
  %50 = xor i1 %49, true
  br label %51

51:                                               ; preds = %45, %40
  %52 = phi i1 [ false, %40 ], [ %50, %45 ]
  br i1 %52, label %53, label %57

53:                                               ; preds = %51
  br label %54

54:                                               ; preds = %53
  %55 = load ptr, ptr %7, align 8, !tbaa !7
  %56 = call ptr @rb_char_next(ptr noundef %55)
  store ptr %56, ptr %7, align 8, !tbaa !7
  br label %40, !llvm.loop !44

57:                                               ; preds = %51
  %58 = load ptr, ptr %7, align 8, !tbaa !7
  %59 = load ptr, ptr %6, align 8, !tbaa !7
  %60 = ptrtoint ptr %58 to i64
  %61 = ptrtoint ptr %59 to i64
  %62 = sub i64 %60, %61
  store i64 %62, ptr %10, align 8, !tbaa !42
  %63 = load i64, ptr %8, align 8, !tbaa !42
  %64 = load ptr, ptr %4, align 8, !tbaa !17
  br i1 false, label %65, label %68

65:                                               ; preds = %57
  %66 = load i64, ptr %10, align 8, !tbaa !42
  %67 = call i1 @llvm.is.constant.i64(i64 %66)
  br label %68

68:                                               ; preds = %65, %57
  %69 = phi i1 [ false, %57 ], [ %67, %65 ]
  %70 = select i1 %69, ptr @rb_str_new_static, ptr @rb_str_new
  %71 = load ptr, ptr %6, align 8, !tbaa !7
  %72 = load i64, ptr %10, align 8, !tbaa !42
  %73 = call i64 %70(ptr noundef %71, i64 noundef %72)
  %74 = call i64 %64(i64 noundef %73)
  %75 = call i64 @rb_ary_push(i64 noundef %63, i64 noundef %74)
  %76 = load ptr, ptr %7, align 8, !tbaa !7
  store ptr %76, ptr %6, align 8, !tbaa !7
  store i32 0, ptr %9, align 4
  br label %77

77:                                               ; preds = %68, %37
  call void @llvm.lifetime.end.p0(i64 8, ptr %10) #24
  %78 = load i32, ptr %9, align 4
  switch i32 %78, label %84 [
    i32 0, label %79
    i32 3, label %80
  ]

79:                                               ; preds = %77
  br label %20, !llvm.loop !45

80:                                               ; preds = %77, %20
  store i32 0, ptr %9, align 4
  br label %81

81:                                               ; preds = %80, %17
  call void @llvm.lifetime.end.p0(i64 8, ptr %8) #24
  call void @llvm.lifetime.end.p0(i64 8, ptr %7) #24
  call void @llvm.lifetime.end.p0(i64 8, ptr %6) #24
  call void @llvm.lifetime.end.p0(i64 1, ptr %5) #24
  %82 = load i32, ptr %9, align 4
  switch i32 %82, label %84 [
    i32 0, label %83
    i32 1, label %83
  ]

83:                                               ; preds = %81, %81
  ret void

84:                                               ; preds = %81, %77
  unreachable
}

; Function Attrs: inlinehint nounwind sspstrong uwtable
define internal ptr @rb_current_vm() #5 {
  %1 = load ptr, ptr @ruby_current_vm_ptr, align 8, !tbaa !47
  ret ptr %1
}

; Function Attrs: nounwind sspstrong uwtable
define dso_local void @ruby_init_loadpath() #0 {
  %1 = alloca i64, align 8
  %2 = alloca i64, align 8
  %3 = alloca i64, align 8
  %4 = alloca ptr, align 8
  %5 = alloca i64, align 8
  %6 = alloca i64, align 8
  %7 = alloca i64, align 8
  call void @llvm.lifetime.start.p0(i64 8, ptr %1) #24
  call void @llvm.lifetime.start.p0(i64 8, ptr %2) #24
  store i64 0, ptr %2, align 8, !tbaa !42
  call void @llvm.lifetime.start.p0(i64 8, ptr %3) #24
  call void @llvm.lifetime.start.p0(i64 8, ptr %4) #24
  store ptr @ruby_initial_load_paths, ptr %4, align 8, !tbaa !7
  call void @llvm.lifetime.start.p0(i64 8, ptr %5) #24
  %8 = call i64 @strlen(ptr noundef @ruby_exec_prefix) #25
  store i64 %8, ptr %5, align 8, !tbaa !42
  call void @rb_gc_register_address(ptr noundef @ruby_prefix_path)
  br i1 false, label %9, label %12

9:                                                ; preds = %0
  %10 = load i64, ptr %5, align 8, !tbaa !42
  %11 = call i1 @llvm.is.constant.i64(i64 %10)
  br label %12

12:                                               ; preds = %9, %0
  %13 = phi i1 [ false, %0 ], [ %11, %9 ]
  %14 = select i1 %13, ptr @rb_str_new_static, ptr @rb_str_new
  %15 = load i64, ptr %5, align 8, !tbaa !42
  %16 = call i64 %14(ptr noundef @ruby_exec_prefix, i64 noundef %15)
  store i64 %16, ptr @ruby_prefix_path, align 8, !tbaa !42
  %17 = load i64, ptr @ruby_prefix_path, align 8, !tbaa !42
  call void @rb_obj_freeze_inline(i64 noundef %17)
  %18 = load i64, ptr %2, align 8, !tbaa !42
  %19 = icmp ne i64 %18, 0
  br i1 %19, label %22, label %20

20:                                               ; preds = %12
  %21 = load i64, ptr @ruby_prefix_path, align 8, !tbaa !42
  store i64 %21, ptr %2, align 8, !tbaa !42
  br label %22

22:                                               ; preds = %20, %12
  call void @rb_gc_register_address(ptr noundef @ruby_archlibdir_path)
  %23 = load i64, ptr %2, align 8, !tbaa !42
  store i64 %23, ptr @ruby_archlibdir_path, align 8, !tbaa !42
  %24 = call ptr @rb_current_vm()
  %25 = getelementptr inbounds nuw %struct.rb_vm_struct, ptr %24, i32 0, i32 11
  %26 = load i64, ptr %25, align 8, !tbaa !18
  store i64 %26, ptr %1, align 8, !tbaa !42
  %27 = call ptr @getenv(ptr noundef @.str) #24
  call void @ruby_push_include(ptr noundef %27, ptr noundef @identical_path)
  %28 = call i64 @rb_intern_const(ptr noundef @.str.1) #25
  store i64 %28, ptr %3, align 8, !tbaa !42
  br label %29

29:                                               ; preds = %39, %22
  %30 = load ptr, ptr %4, align 8, !tbaa !7
  %31 = load i8, ptr %30, align 1, !tbaa !14
  %32 = icmp ne i8 %31, 0
  br i1 %32, label %33, label %56

33:                                               ; preds = %29
  call void @llvm.lifetime.start.p0(i64 8, ptr %6) #24
  %34 = load ptr, ptr %4, align 8, !tbaa !7
  %35 = call i64 @strlen(ptr noundef %34) #25
  store i64 %35, ptr %6, align 8, !tbaa !42
  call void @llvm.lifetime.start.p0(i64 8, ptr %7) #24
  br i1 false, label %36, label %39

36:                                               ; preds = %33
  %37 = load i64, ptr %6, align 8, !tbaa !42
  %38 = call i1 @llvm.is.constant.i64(i64 %37)
  br label %39

39:                                               ; preds = %36, %33
  %40 = phi i1 [ false, %33 ], [ %38, %36 ]
  %41 = select i1 %40, ptr @rb_str_new_static, ptr @rb_str_new
  %42 = load ptr, ptr %4, align 8, !tbaa !7
  %43 = load i64, ptr %6, align 8, !tbaa !42
  %44 = call i64 %41(ptr noundef %42, i64 noundef %43)
  store i64 %44, ptr %7, align 8, !tbaa !42
  %45 = load i64, ptr %7, align 8, !tbaa !42
  %46 = load i64, ptr %3, align 8, !tbaa !42
  %47 = load i64, ptr %7, align 8, !tbaa !42
  %48 = call i64 @rb_ivar_set(i64 noundef %45, i64 noundef %46, i64 noundef %47)
  %49 = load i64, ptr %1, align 8, !tbaa !42
  %50 = load i64, ptr %7, align 8, !tbaa !42
  %51 = call i64 @rb_ary_push(i64 noundef %49, i64 noundef %50)
  %52 = load i64, ptr %6, align 8, !tbaa !42
  %53 = add i64 %52, 1
  %54 = load ptr, ptr %4, align 8, !tbaa !7
  %55 = getelementptr i8, ptr %54, i64 %53
  store ptr %55, ptr %4, align 8, !tbaa !7
  call void @llvm.lifetime.end.p0(i64 8, ptr %7) #24
  call void @llvm.lifetime.end.p0(i64 8, ptr %6) #24
  br label %29, !llvm.loop !46

56:                                               ; preds = %29
  %57 = load i64, ptr @rb_cObject, align 8, !tbaa !42
  %58 = call i64 @rb_intern_const(ptr noundef @.str.2) #25
  %59 = load i64, ptr @ruby_prefix_path, align 8, !tbaa !42
  call void @rb_const_set(i64 noundef %57, i64 noundef %58, i64 noundef %59)
  call void @llvm.lifetime.end.p0(i64 8, ptr %5) #24
  call void @llvm.lifetime.end.p0(i64 8, ptr %4) #24
  call void @llvm.lifetime.end.p0(i64 8, ptr %3) #24
  call void @llvm.lifetime.end.p0(i64 8, ptr %2) #24
  call void @llvm.lifetime.end.p0(i64 8, ptr %1) #24
  ret void
}