; Function Attrs: nounwind sspstrong uwtable
define dso_local void @ruby_init_loadpath() local_unnamed_addr #0 {
  %1 = tail call i64 @strlen(ptr noundef nonnull dereferenceable(1) @ruby_exec_prefix) #24
  tail call void @rb_gc_register_address(ptr noundef nonnull @ruby_prefix_path) #25
  %2 = tail call i64 @rb_str_new(ptr noundef nonnull @ruby_exec_prefix, i64 noundef %1) #25
  store i64 %2, ptr @ruby_prefix_path, align 8, !tbaa !47
  tail call void @rb_obj_freeze_inline(i64 noundef %2) #25
  %3 = load i64, ptr @ruby_prefix_path, align 8, !tbaa !47
  tail call void @rb_gc_register_address(ptr noundef nonnull @ruby_archlibdir_path) #25
  store i64 %3, ptr @ruby_archlibdir_path, align 8, !tbaa !47
  %4 = load ptr, ptr @ruby_current_vm_ptr, align 8, !tbaa !12
  %5 = getelementptr inbounds nuw i8, ptr %4, i64 576
  %6 = load i64, ptr %5, align 8, !tbaa !15
  %7 = tail call ptr @getenv(ptr noundef nonnull @.str) #25
  %8 = icmp eq ptr %7, null
  br i1 %8, label %ruby_push_include.exit, label %.preheader28.i

.preheader28.i:                                   ; preds = %0
  %9 = load i8, ptr %7, align 1, !tbaa !7
  %.not31.i = icmp eq i8 %9, 0
  br i1 %.not31.i, label %ruby_push_include.exit, label %.preheader27.i

.preheader27.i:                                   ; preds = %.preheader28.i, %.preheader27.i.backedge
  %10 = phi i8 [ %.be, %.preheader27.i.backedge ], [ %9, %.preheader28.i ]
  %.1.i = phi ptr [ %.1.i.be, %.preheader27.i.backedge ], [ %7, %.preheader28.i ]
  switch i8 %10, label %.preheader.i [
    i8 58, label %11
    i8 0, label %ruby_push_include.exit
  ]

11:                                               ; preds = %.preheader27.i
  %12 = getelementptr i8, ptr %.1.i, i64 1
  %.pr.i = load i8, ptr %12, align 1, !tbaa !7
  br label %.preheader27.i.backedge

.preheader27.i.backedge:                          ; preds = %11, %18
  %.be = phi i8 [ %.pr.i, %11 ], [ %24, %18 ]
  %.1.i.be = phi ptr [ %12, %11 ], [ %.018.i, %18 ]
  br label %.preheader27.i, !llvm.loop !40

.preheader.i:                                     ; preds = %.preheader27.i, %rb_char_next.exit.i
  %13 = phi i8 [ %.pre.i, %rb_char_next.exit.i ], [ %10, %.preheader27.i ]
  %.018.i = phi ptr [ %17, %rb_char_next.exit.i ], [ %.1.i, %.preheader27.i ]
  switch i8 %13, label %rb_char_next.exit.i [
    i8 0, label %18
    i8 58, label %18
  ]

rb_char_next.exit.i:                              ; preds = %.preheader.i
  %14 = tail call i32 @mblen(ptr noundef nonnull %.018.i, i64 noundef 2147483647) #25
  %15 = tail call i32 @llvm.smax.i32(i32 %14, i32 1)
  %16 = zext nneg i32 %15 to i64
  %17 = getelementptr i8, ptr %.018.i, i64 %16
  %.pre.i = load i8, ptr %17, align 1, !tbaa !7
  br label %.preheader.i, !llvm.loop !41

18:                                               ; preds = %.preheader.i, %.preheader.i
  %19 = ptrtoint ptr %.018.i to i64
  %20 = ptrtoint ptr %.1.i to i64
  %21 = sub i64 %19, %20
  %22 = tail call i64 @rb_str_new(ptr noundef nonnull %.1.i, i64 noundef %21) #25
  %23 = tail call i64 @rb_ary_push(i64 noundef %6, i64 noundef %22) #25
  %24 = load i8, ptr %.018.i, align 1, !tbaa !7
  %.not.i = icmp eq i8 %24, 0
  br i1 %.not.i, label %ruby_push_include.exit, label %.preheader27.i.backedge

ruby_push_include.exit:                           ; preds = %18, %.preheader27.i, %0, %.preheader28.i
  %25 = tail call i64 @rb_intern2(ptr noundef nonnull @.str.1, i64 noundef 18) #25
  %26 = load i8, ptr @ruby_initial_load_paths, align 1, !tbaa !7
  %.not17 = icmp eq i8 %26, 0
  br i1 %.not17, label %._crit_edge, label %.lr.ph

.lr.ph:                                           ; preds = %ruby_push_include.exit, %.lr.ph
  %.01318 = phi ptr [ %32, %.lr.ph ], [ @ruby_initial_load_paths, %ruby_push_include.exit ]
  %27 = tail call i64 @strlen(ptr noundef nonnull dereferenceable(1) %.01318) #24
  %28 = tail call i64 @rb_str_new(ptr noundef nonnull %.01318, i64 noundef %27) #25
  %29 = tail call i64 @rb_ivar_set(i64 noundef %28, i64 noundef %25, i64 noundef %28) #25
  %30 = tail call i64 @rb_ary_push(i64 noundef %6, i64 noundef %28) #25
  %31 = getelementptr i8, ptr %.01318, i64 %27
  %32 = getelementptr i8, ptr %31, i64 1
  %33 = load i8, ptr %32, align 1, !tbaa !7
  %.not = icmp eq i8 %33, 0
  br i1 %.not, label %._crit_edge, label %.lr.ph, !llvm.loop !48

._crit_edge:                                      ; preds = %.lr.ph, %ruby_push_include.exit
  %34 = load i64, ptr @rb_cObject, align 8, !tbaa !47
  %35 = tail call i64 @rb_intern2(ptr noundef nonnull @.str.2, i64 noundef 15) #25
  %36 = load i64, ptr @ruby_prefix_path, align 8, !tbaa !47
  tail call void @rb_const_set(i64 noundef %34, i64 noundef %35, i64 noundef %36) #25
  ret void
}